target datalayout = "e-m:e-p270:32:32-p271:32:32-p272:64:64-i64:64-i128:128-f80:128-n8:16:32:64-S128"
target triple = "x86_64-pc-linux-gnu"

%struct.TwoPhaseStateData = type { ptr, i32, [0 x ptr] }
%struct.GlobalTransactionData = type { ptr, i32, i64, i64, i64, i32, i32, i32, i8, i8, i8, [200 x i8] }
%struct.pg_atomic_uint32 = type { i32 }
%struct.LWLock = type { i16, %struct.pg_atomic_uint32, %struct.proclist_head }
%struct.proclist_head = type { i32, i32 }
%union.LWLockPadded = type { %struct.LWLock, [112 x i8] }

@TwoPhaseState = internal global ptr null, align 8
@MainLWLockArray = external global ptr, align 8
@.str.2 = private unnamed_addr constant [11 x i8] c"twophase.c\00", align 1
@TwoPhaseGetGXact.cached_xid = internal global i32 0, align 4
@TwoPhaseGetGXact.cached_gxact = internal global ptr null, align 8
@.str.27 = private unnamed_addr constant [44 x i8] c"failed to find GlobalTransaction for xid %u\00", align 1
@__func__.TwoPhaseGetGXact = private unnamed_addr constant [17 x i8] c"TwoPhaseGetGXact\00", align 1

; Function Attrs: nounwind uwtable
define internal ptr @TwoPhaseGetGXact(i32 noundef %0, i1 noundef zeroext %1) #0 {
  %3 = alloca ptr, align 8
  %4 = alloca i32, align 4
  %5 = alloca i8, align 1
  %6 = alloca ptr, align 8
  %7 = alloca i32, align 4
  %8 = alloca i32, align 4
  %9 = alloca ptr, align 8
  store i32 %0, ptr %4, align 4
  %10 = zext i1 %1 to i8
  store i8 %10, ptr %5, align 1
  call void @llvm.lifetime.start.p0(i64 8, ptr %6) #12
  store ptr null, ptr %6, align 8
  call void @llvm.lifetime.start.p0(i64 4, ptr %7) #12
  %11 = load i32, ptr %4, align 4
  %12 = load i32, ptr @TwoPhaseGetGXact.cached_xid, align 4
  %13 = icmp eq i32 %11, %12
  br i1 %13, label %14, label %16

14:                                               ; preds = %2
  %15 = load ptr, ptr @TwoPhaseGetGXact.cached_gxact, align 8
  store ptr %15, ptr %3, align 8
  store i32 1, ptr %8, align 4
  br label %76

16:                                               ; preds = %2
  %17 = load i8, ptr %5, align 1, !range !4, !noundef !5
  %18 = trunc i8 %17 to i1
  br i1 %18, label %23, label %19

19:                                               ; preds = %16
  %20 = load ptr, ptr @MainLWLockArray, align 8
  %21 = getelementptr inbounds %union.LWLockPadded, ptr %20, i64 18
  %22 = call zeroext i1 @LWLockAcquire(ptr noundef %21, i32 noundef 1)
  br label %23

23:                                               ; preds = %19, %16
  store i32 0, ptr %7, align 4
  br label %24

24:                                               ; preds = %48, %23
  %25 = load i32, ptr %7, align 4
  %26 = load ptr, ptr @TwoPhaseState, align 8
  %27 = getelementptr inbounds nuw %struct.TwoPhaseStateData, ptr %26, i32 0, i32 1
  %28 = load i32, ptr %27, align 8
  %29 = icmp slt i32 %25, %28
  br i1 %29, label %30, label %51

30:                                               ; preds = %24
  call void @llvm.lifetime.start.p0(i64 8, ptr %9) #12
  %31 = load ptr, ptr @TwoPhaseState, align 8
  %32 = getelementptr inbounds nuw %struct.TwoPhaseStateData, ptr %31, i32 0, i32 2
  %33 = load i32, ptr %7, align 4
  %34 = sext i32 %33 to i64
  %35 = getelementptr inbounds [0 x ptr], ptr %32, i64 0, i64 %34
  %36 = load ptr, ptr %35, align 8
  store ptr %36, ptr %9, align 8
  %37 = load ptr, ptr %9, align 8
  %38 = getelementptr inbounds nuw %struct.GlobalTransactionData, ptr %37, i32 0, i32 5
  %39 = load i32, ptr %38, align 8
  %40 = load i32, ptr %4, align 4
  %41 = icmp eq i32 %39, %40
  br i1 %41, label %42, label %44

42:                                               ; preds = %30
  %43 = load ptr, ptr %9, align 8
  store ptr %43, ptr %6, align 8
  store i32 2, ptr %8, align 4
  br label %45

44:                                               ; preds = %30
  store i32 0, ptr %8, align 4
  br label %45

45:                                               ; preds = %44, %42
  call void @llvm.lifetime.end.p0(i64 8, ptr %9) #12
  %46 = load i32, ptr %8, align 4
  switch i32 %46, label %78 [
    i32 0, label %47
    i32 2, label %51
  ]

47:                                               ; preds = %45
  br label %48

48:                                               ; preds = %47
  %49 = load i32, ptr %7, align 4
  %50 = add i32 %49, 1
  store i32 %50, ptr %7, align 4
  br label %24, !llvm.loop !15

51:                                               ; preds = %45, %24
  %52 = load i8, ptr %5, align 1, !range !4, !noundef !5
  %53 = trunc i8 %52 to i1
  br i1 %53, label %57, label %54

54:                                               ; preds = %51
  %55 = load ptr, ptr @MainLWLockArray, align 8
  %56 = getelementptr inbounds %union.LWLockPadded, ptr %55, i64 18
  call void @LWLockRelease(ptr noundef %56)
  br label %57

57:                                               ; preds = %54, %51
  %58 = load ptr, ptr %6, align 8
  %59 = icmp eq ptr %58, null
  br i1 %59, label %60, label %72

60:                                               ; preds = %57
  br label %61

61:                                               ; preds = %60
  br i1 true, label %62, label %64

62:                                               ; preds = %61
  %63 = call zeroext i1 @errstart_cold(i32 noundef 21, ptr noundef null) #13
  br i1 %63, label %66, label %69

64:                                               ; preds = %61
  %65 = call zeroext i1 @errstart(i32 noundef 21, ptr noundef null)
  br i1 %65, label %66, label %69

66:                                               ; preds = %64, %62
  %67 = load i32, ptr %4, align 4
  %68 = call i32 (ptr, ...) @errmsg_internal(ptr noundef @.str.27, i32 noundef %67)
  call void @errfinish(ptr noundef @.str.2, i32 noundef 835, ptr noundef @__func__.TwoPhaseGetGXact)
  br label %69

69:                                               ; preds = %66, %64, %62
  unreachable

70:                                               ; No predecessors!
  br label %71

71:                                               ; preds = %70
  br label %72

72:                                               ; preds = %71, %57
  %73 = load i32, ptr %4, align 4
  store i32 %73, ptr @TwoPhaseGetGXact.cached_xid, align 4
  %74 = load ptr, ptr %6, align 8
  store ptr %74, ptr @TwoPhaseGetGXact.cached_gxact, align 8
  %75 = load ptr, ptr %6, align 8
  store ptr %75, ptr %3, align 8
  store i32 1, ptr %8, align 4
  br label %76

76:                                               ; preds = %72, %14
  call void @llvm.lifetime.end.p0(i64 4, ptr %7) #12
  call void @llvm.lifetime.end.p0(i64 8, ptr %6) #12
  %77 = load ptr, ptr %3, align 8
  ret ptr %77

78:                                               ; preds = %45
  unreachable
}