; Function Attrs: nounwind uwtable
define internal fastcc ptr @TwoPhaseGetGXact(i32 noundef %0, i1 noundef zeroext %1) unnamed_addr #0 {
  %3 = load i32, ptr @TwoPhaseGetGXact.cached_xid, align 4
  %4 = icmp eq i32 %0, %3
  br i1 %4, label %5, label %7

5:                                                ; preds = %2
  %6 = load ptr, ptr @TwoPhaseGetGXact.cached_gxact, align 8
  br label %34

7:                                                ; preds = %2
  br i1 %1, label %12, label %8

8:                                                ; preds = %7
  %9 = load ptr, ptr @MainLWLockArray, align 8
  %10 = getelementptr inbounds nuw i8, ptr %9, i64 2304
  %11 = tail call zeroext i1 @LWLockAcquire(ptr noundef nonnull %10, i32 noundef 1) #14
  br label %12

12:                                               ; preds = %8, %7
  %13 = load ptr, ptr @TwoPhaseState, align 8
  %14 = getelementptr inbounds nuw i8, ptr %13, i64 8
  %15 = load i32, ptr %14, align 8
  %16 = icmp sgt i32 %15, 0
  br i1 %16, label %.lr.ph, label %._crit_edge

.lr.ph:                                           ; preds = %12
  %17 = getelementptr inbounds nuw i8, ptr %13, i64 16
  %wide.trip.count = zext nneg i32 %15 to i64
  br label %19

18:                                               ; preds = %19
  %indvars.iv.next = add nuw nsw i64 %indvars.iv, 1
  %exitcond.not = icmp eq i64 %indvars.iv.next, %wide.trip.count
  br i1 %exitcond.not, label %._crit_edge, label %19, !llvm.loop !14

19:                                               ; preds = %.lr.ph, %18
  %indvars.iv = phi i64 [ 0, %.lr.ph ], [ %indvars.iv.next, %18 ]
  %20 = getelementptr inbounds nuw [0 x ptr], ptr %17, i64 0, i64 %indvars.iv
  %21 = load ptr, ptr %20, align 8
  %22 = getelementptr inbounds nuw i8, ptr %21, i64 40
  %23 = load i32, ptr %22, align 8
  %24 = icmp eq i32 %23, %0
  br i1 %24, label %._crit_edge, label %18

._crit_edge:                                      ; preds = %18, %19, %12
  %.1 = phi ptr [ null, %12 ], [ %21, %19 ], [ null, %18 ]
  br i1 %1, label %28, label %25

25:                                               ; preds = %._crit_edge
  %26 = load ptr, ptr @MainLWLockArray, align 8
  %27 = getelementptr inbounds nuw i8, ptr %26, i64 2304
  tail call void @LWLockRelease(ptr noundef nonnull %27) #14
  br label %28

28:                                               ; preds = %25, %._crit_edge
  %29 = icmp eq ptr %.1, null
  br i1 %29, label %30, label %33

30:                                               ; preds = %28
  %31 = tail call zeroext i1 @errstart_cold(i32 noundef 21, ptr noundef null) #15
  tail call void @llvm.assume(i1 %31)
  %32 = tail call i32 (ptr, ...) @errmsg_internal(ptr noundef nonnull @.str.27, i32 noundef %0) #14
  tail call void @errfinish(ptr noundef nonnull @.str.2, i32 noundef 835, ptr noundef nonnull @__func__.TwoPhaseGetGXact) #14
  unreachable

33:                                               ; preds = %28
  store i32 %0, ptr @TwoPhaseGetGXact.cached_xid, align 4
  store ptr %.1, ptr @TwoPhaseGetGXact.cached_gxact, align 8
  br label %34

34:                                               ; preds = %33, %5
  %.0 = phi ptr [ %6, %5 ], [ %.1, %33 ]
  ret ptr %.0
}